target datalayout = "e-m:e-p270:32:32-p271:32:32-p272:64:64-i64:64-i128:128-f80:128-n8:16:32:64-S128"
target triple = "x86_64-pc-linux-gnu"

; Function Attrs: inlinehint nounwind uwtable
define internal i32 @Kit_TruthWordNum(i32 noundef %0) #2 {
  %2 = alloca i32, align 4
  store i32 %0, ptr %2, align 4, !tbaa !8
  %3 = load i32, ptr %2, align 4, !tbaa !8
  %4 = icmp sle i32 %3, 5
  br i1 %4, label %5, label %6

5:                                                ; preds = %1
  br label %10

6:                                                ; preds = %1
  %7 = load i32, ptr %2, align 4, !tbaa !8
  %8 = sub nsw i32 %7, 5
  %9 = shl i32 1, %8
  br label %10

10:                                               ; preds = %6, %5
  %11 = phi i32 [ 1, %5 ], [ %9, %6 ]
  ret i32 %11
}

; Function Attrs: nounwind uwtable
define void @Kit_TruthSwapAdjacentVars(ptr noundef %0, ptr noundef %1, i32 noundef %2, i32 noundef %3) #0 {
  %5 = alloca ptr, align 8
  %6 = alloca ptr, align 8
  %7 = alloca i32, align 4
  %8 = alloca i32, align 4
  %9 = alloca i32, align 4
  %10 = alloca i32, align 4
  %11 = alloca i32, align 4
  %12 = alloca i32, align 4
  %13 = alloca i32, align 4
  store ptr %0, ptr %5, align 8, !tbaa !3
  store ptr %1, ptr %6, align 8, !tbaa !3
  store i32 %2, ptr %7, align 4, !tbaa !8
  store i32 %3, ptr %8, align 4, !tbaa !8
  call void @llvm.lifetime.start.p0(i64 4, ptr %9) #8
  %14 = load i32, ptr %7, align 4, !tbaa !8
  %15 = call i32 @Kit_TruthWordNum(i32 noundef %14)
  store i32 %15, ptr %9, align 4, !tbaa !8
  call void @llvm.lifetime.start.p0(i64 4, ptr %10) #8
  call void @llvm.lifetime.start.p0(i64 4, ptr %11) #8
  call void @llvm.lifetime.start.p0(i64 4, ptr %12) #8
  call void @llvm.lifetime.start.p0(i64 4, ptr %13) #8
  %16 = load i32, ptr %8, align 4, !tbaa !8
  %17 = icmp slt i32 %16, 4
  br i1 %17, label %18, label %73

18:                                               ; preds = %4
  %19 = load i32, ptr %8, align 4, !tbaa !8
  %20 = shl i32 1, %19
  store i32 %20, ptr %13, align 4, !tbaa !8
  store i32 0, ptr %10, align 4, !tbaa !8
  br label %21

21:                                               ; preds = %69, %18
  %22 = load i32, ptr %10, align 4, !tbaa !8
  %23 = load i32, ptr %9, align 4, !tbaa !8
  %24 = icmp slt i32 %22, %23
  br i1 %24, label %25, label %72

25:                                               ; preds = %21
  %26 = load ptr, ptr %6, align 8, !tbaa !3
  %27 = load i32, ptr %10, align 4, !tbaa !8
  %28 = sext i32 %27 to i64
  %29 = getelementptr inbounds i32, ptr %26, i64 %28
  %30 = load i32, ptr %29, align 4, !tbaa !8
  %31 = load i32, ptr %8, align 4, !tbaa !8
  %32 = sext i32 %31 to i64
  %33 = getelementptr inbounds [4 x [3 x i32]], ptr @Kit_TruthSwapAdjacentVars.PMasks, i64 0, i64 %32
  %34 = getelementptr inbounds [3 x i32], ptr %33, i64 0, i64 0
  %35 = load i32, ptr %34, align 4, !tbaa !8
  %36 = and i32 %30, %35
  %37 = load ptr, ptr %6, align 8, !tbaa !3
  %38 = load i32, ptr %10, align 4, !tbaa !8
  %39 = sext i32 %38 to i64
  %40 = getelementptr inbounds i32, ptr %37, i64 %39
  %41 = load i32, ptr %40, align 4, !tbaa !8
  %42 = load i32, ptr %8, align 4, !tbaa !8
  %43 = sext i32 %42 to i64
  %44 = getelementptr inbounds [4 x [3 x i32]], ptr @Kit_TruthSwapAdjacentVars.PMasks, i64 0, i64 %43
  %45 = getelementptr inbounds [3 x i32], ptr %44, i64 0, i64 1
  %46 = load i32, ptr %45, align 4, !tbaa !8
  %47 = and i32 %41, %46
  %48 = load i32, ptr %13, align 4, !tbaa !8
  %49 = shl i32 %47, %48
  %50 = or i32 %36, %49
  %51 = load ptr, ptr %6, align 8, !tbaa !3
  %52 = load i32, ptr %10, align 4, !tbaa !8
  %53 = sext i32 %52 to i64
  %54 = getelementptr inbounds i32, ptr %51, i64 %53
  %55 = load i32, ptr %54, align 4, !tbaa !8
  %56 = load i32, ptr %8, align 4, !tbaa !8
  %57 = sext i32 %56 to i64
  %58 = getelementptr inbounds [4 x [3 x i32]], ptr @Kit_TruthSwapAdjacentVars.PMasks, i64 0, i64 %57
  %59 = getelementptr inbounds [3 x i32], ptr %58, i64 0, i64 2
  %60 = load i32, ptr %59, align 4, !tbaa !8
  %61 = and i32 %55, %60
  %62 = load i32, ptr %13, align 4, !tbaa !8
  %63 = lshr i32 %61, %62
  %64 = or i32 %50, %63
  %65 = load ptr, ptr %5, align 8, !tbaa !3
  %66 = load i32, ptr %10, align 4, !tbaa !8
  %67 = sext i32 %66 to i64
  %68 = getelementptr inbounds i32, ptr %65, i64 %67
  store i32 %64, ptr %68, align 4, !tbaa !8
  br label %69

69:                                               ; preds = %25
  %70 = load i32, ptr %10, align 4, !tbaa !8
  %71 = add nsw i32 %70, 1
  store i32 %71, ptr %10, align 4, !tbaa !8
  br label %21, !llvm.loop !10

72:                                               ; preds = %21
  br label %239

73:                                               ; preds = %4
  %74 = load i32, ptr %8, align 4, !tbaa !8
  %75 = icmp sgt i32 %74, 4
  br i1 %75, label %76, label %189

76:                                               ; preds = %73
  %77 = load i32, ptr %8, align 4, !tbaa !8
  %78 = sub nsw i32 %77, 5
  %79 = shl i32 1, %78
  store i32 %79, ptr %12, align 4, !tbaa !8
  store i32 0, ptr %11, align 4, !tbaa !8
  br label %80

80:                                               ; preds = %183, %76
  %81 = load i32, ptr %11, align 4, !tbaa !8
  %82 = load i32, ptr %9, align 4, !tbaa !8
  %83 = icmp slt i32 %81, %82
  br i1 %83, label %84, label %188

84:                                               ; preds = %80
  store i32 0, ptr %10, align 4, !tbaa !8
  br label %85

85:                                               ; preds = %99, %84
  %86 = load i32, ptr %10, align 4, !tbaa !8
  %87 = load i32, ptr %12, align 4, !tbaa !8
  %88 = icmp slt i32 %86, %87
  br i1 %88, label %89, label %102

89:                                               ; preds = %85
  %90 = load ptr, ptr %6, align 8, !tbaa !3
  %91 = load i32, ptr %10, align 4, !tbaa !8
  %92 = sext i32 %91 to i64
  %93 = getelementptr inbounds i32, ptr %90, i64 %92
  %94 = load i32, ptr %93, align 4, !tbaa !8
  %95 = load ptr, ptr %5, align 8, !tbaa !3
  %96 = load i32, ptr %10, align 4, !tbaa !8
  %97 = sext i32 %96 to i64
  %98 = getelementptr inbounds i32, ptr %95, i64 %97
  store i32 %94, ptr %98, align 4, !tbaa !8
  br label %99

99:                                               ; preds = %89
  %100 = load i32, ptr %10, align 4, !tbaa !8
  %101 = add nsw i32 %100, 1
  store i32 %101, ptr %10, align 4, !tbaa !8
  br label %85, !llvm.loop !12

102:                                              ; preds = %85
  store i32 0, ptr %10, align 4, !tbaa !8
  br label %103

103:                                              ; preds = %122, %102
  %104 = load i32, ptr %10, align 4, !tbaa !8
  %105 = load i32, ptr %12, align 4, !tbaa !8
  %106 = icmp slt i32 %104, %105
  br i1 %106, label %107, label %125

107:                                              ; preds = %103
  %108 = load ptr, ptr %6, align 8, !tbaa !3
  %109 = load i32, ptr %12, align 4, !tbaa !8
  %110 = mul nsw i32 2, %109
  %111 = load i32, ptr %10, align 4, !tbaa !8
  %112 = add nsw i32 %110, %111
  %113 = sext i32 %112 to i64
  %114 = getelementptr inbounds i32, ptr %108, i64 %113
  %115 = load i32, ptr %114, align 4, !tbaa !8
  %116 = load ptr, ptr %5, align 8, !tbaa !3
  %117 = load i32, ptr %12, align 4, !tbaa !8
  %118 = load i32, ptr %10, align 4, !tbaa !8
  %119 = add nsw i32 %117, %118
  %120 = sext i32 %119 to i64
  %121 = getelementptr inbounds i32, ptr %116, i64 %120
  store i32 %115, ptr %121, align 4, !tbaa !8
  br label %122

122:                                              ; preds = %107
  %123 = load i32, ptr %10, align 4, !tbaa !8
  %124 = add nsw i32 %123, 1
  store i32 %124, ptr %10, align 4, !tbaa !8
  br label %103, !llvm.loop !13

125:                                              ; preds = %103
  store i32 0, ptr %10, align 4, !tbaa !8
  br label %126

126:                                              ; preds = %145, %125
  %127 = load i32, ptr %10, align 4, !tbaa !8
  %128 = load i32, ptr %12, align 4, !tbaa !8
  %129 = icmp slt i32 %127, %128
  br i1 %129, label %130, label %148

130:                                              ; preds = %126
  %131 = load ptr, ptr %6, align 8, !tbaa !3
  %132 = load i32, ptr %12, align 4, !tbaa !8
  %133 = load i32, ptr %10, align 4, !tbaa !8
  %134 = add nsw i32 %132, %133
  %135 = sext i32 %134 to i64
  %136 = getelementptr inbounds i32, ptr %131, i64 %135
  %137 = load i32, ptr %136, align 4, !tbaa !8
  %138 = load ptr, ptr %5, align 8, !tbaa !3
  %139 = load i32, ptr %12, align 4, !tbaa !8
  %140 = mul nsw i32 2, %139
  %141 = load i32, ptr %10, align 4, !tbaa !8
  %142 = add nsw i32 %140, %141
  %143 = sext i32 %142 to i64
  %144 = getelementptr inbounds i32, ptr %138, i64 %143
  store i32 %137, ptr %144, align 4, !tbaa !8
  br label %145

145:                                              ; preds = %130
  %146 = load i32, ptr %10, align 4, !tbaa !8
  %147 = add nsw i32 %146, 1
  store i32 %147, ptr %10, align 4, !tbaa !8
  br label %126, !llvm.loop !14

148:                                              ; preds = %126
  store i32 0, ptr %10, align 4, !tbaa !8
  br label %149

149:                                              ; preds = %169, %148
  %150 = load i32, ptr %10, align 4, !tbaa !8
  %151 = load i32, ptr %12, align 4, !tbaa !8
  %152 = icmp slt i32 %150, %151
  br i1 %152, label %153, label %172

153:                                              ; preds = %149
  %154 = load ptr, ptr %6, align 8, !tbaa !3
  %155 = load i32, ptr %12, align 4, !tbaa !8
  %156 = mul nsw i32 3, %155
  %157 = load i32, ptr %10, align 4, !tbaa !8
  %158 = add nsw i32 %156, %157
  %159 = sext i32 %158 to i64
  %160 = getelementptr inbounds i32, ptr %154, i64 %159
  %161 = load i32, ptr %160, align 4, !tbaa !8
  %162 = load ptr, ptr %5, align 8, !tbaa !3
  %163 = load i32, ptr %12, align 4, !tbaa !8
  %164 = mul nsw i32 3, %163
  %165 = load i32, ptr %10, align 4, !tbaa !8
  %166 = add nsw i32 %164, %165
  %167 = sext i32 %166 to i64
  %168 = getelementptr inbounds i32, ptr %162, i64 %167
  store i32 %161, ptr %168, align 4, !tbaa !8
  br label %169

169:                                              ; preds = %153
  %170 = load i32, ptr %10, align 4, !tbaa !8
  %171 = add nsw i32 %170, 1
  store i32 %171, ptr %10, align 4, !tbaa !8
  br label %149, !llvm.loop !15

172:                                              ; preds = %149
  %173 = load i32, ptr %12, align 4, !tbaa !8
  %174 = mul nsw i32 4, %173
  %175 = load ptr, ptr %6, align 8, !tbaa !3
  %176 = sext i32 %174 to i64
  %177 = getelementptr inbounds i32, ptr %175, i64 %176
  store ptr %177, ptr %6, align 8, !tbaa !3
  %178 = load i32, ptr %12, align 4, !tbaa !8
  %179 = mul nsw i32 4, %178
  %180 = load ptr, ptr %5, align 8, !tbaa !3
  %181 = sext i32 %179 to i64
  %182 = getelementptr inbounds i32, ptr %180, i64 %181
  store ptr %182, ptr %5, align 8, !tbaa !3
  br label %183

183:                                              ; preds = %172
  %184 = load i32, ptr %12, align 4, !tbaa !8
  %185 = mul nsw i32 4, %184
  %186 = load i32, ptr %11, align 4, !tbaa !8
  %187 = add nsw i32 %186, %185
  store i32 %187, ptr %11, align 4, !tbaa !8
  br label %80, !llvm.loop !16

188:                                              ; preds = %80
  br label %238

189:                                              ; preds = %73
  store i32 0, ptr %10, align 4, !tbaa !8
  br label %190

190:                                              ; preds = %234, %189
  %191 = load i32, ptr %10, align 4, !tbaa !8
  %192 = load i32, ptr %9, align 4, !tbaa !8
  %193 = icmp slt i32 %191, %192
  br i1 %193, label %194, label %237

194:                                              ; preds = %190
  %195 = load ptr, ptr %6, align 8, !tbaa !3
  %196 = load i32, ptr %10, align 4, !tbaa !8
  %197 = sext i32 %196 to i64
  %198 = getelementptr inbounds i32, ptr %195, i64 %197
  %199 = load i32, ptr %198, align 4, !tbaa !8
  %200 = and i32 %199, 65535
  %201 = load ptr, ptr %6, align 8, !tbaa !3
  %202 = load i32, ptr %10, align 4, !tbaa !8
  %203 = add nsw i32 %202, 1
  %204 = sext i32 %203 to i64
  %205 = getelementptr inbounds i32, ptr %201, i64 %204
  %206 = load i32, ptr %205, align 4, !tbaa !8
  %207 = and i32 %206, 65535
  %208 = shl i32 %207, 16
  %209 = or i32 %200, %208
  %210 = load ptr, ptr %5, align 8, !tbaa !3
  %211 = load i32, ptr %10, align 4, !tbaa !8
  %212 = sext i32 %211 to i64
  %213 = getelementptr inbounds i32, ptr %210, i64 %212
  store i32 %209, ptr %213, align 4, !tbaa !8
  %214 = load ptr, ptr %6, align 8, !tbaa !3
  %215 = load i32, ptr %10, align 4, !tbaa !8
  %216 = add nsw i32 %215, 1
  %217 = sext i32 %216 to i64
  %218 = getelementptr inbounds i32, ptr %214, i64 %217
  %219 = load i32, ptr %218, align 4, !tbaa !8
  %220 = and i32 %219, -65536
  %221 = load ptr, ptr %6, align 8, !tbaa !3
  %222 = load i32, ptr %10, align 4, !tbaa !8
  %223 = sext i32 %222 to i64
  %224 = getelementptr inbounds i32, ptr %221, i64 %223
  %225 = load i32, ptr %224, align 4, !tbaa !8
  %226 = and i32 %225, -65536
  %227 = lshr i32 %226, 16
  %228 = or i32 %220, %227
  %229 = load ptr, ptr %5, align 8, !tbaa !3
  %230 = load i32, ptr %10, align 4, !tbaa !8
  %231 = add nsw i32 %230, 1
  %232 = sext i32 %231 to i64
  %233 = getelementptr inbounds i32, ptr %229, i64 %232
  store i32 %228, ptr %233, align 4, !tbaa !8
  br label %234

234:                                              ; preds = %194
  %235 = load i32, ptr %10, align 4, !tbaa !8
  %236 = add nsw i32 %235, 2
  store i32 %236, ptr %10, align 4, !tbaa !8
  br label %190, !llvm.loop !17

237:                                              ; preds = %190
  br label %238

238:                                              ; preds = %237, %188
  br label %239

239:                                              ; preds = %238, %72
  call void @llvm.lifetime.end.p0(i64 4, ptr %13) #8
  call void @llvm.lifetime.end.p0(i64 4, ptr %12) #8
  call void @llvm.lifetime.end.p0(i64 4, ptr %11) #8
  call void @llvm.lifetime.end.p0(i64 4, ptr %10) #8
  call void @llvm.lifetime.end.p0(i64 4, ptr %9) #8
  ret void
}