; Function Attrs: nofree norecurse nosync nounwind memory(argmem: readwrite) uwtable
define void @Kit_TruthSwapAdjacentVars(ptr noundef writeonly captures(none) %0, ptr noundef readonly captures(none) %1, i32 noundef %2, i32 noundef %3) local_unnamed_addr #0 {
  %5 = icmp slt i32 %2, 6
  %6 = add nsw i32 %2, -5
  %7 = shl nuw i32 1, %6
  %8 = select i1 %5, i32 1, i32 %7
  %9 = icmp slt i32 %3, 4
  br i1 %9, label %10, label %31

10:                                               ; preds = %4
  %11 = shl nuw nsw i32 1, %3
  %12 = icmp sgt i32 %8, 0
  br i1 %12, label %.lr.ph135, label %.loopexit

.lr.ph135:                                        ; preds = %10
  %13 = sext i32 %3 to i64
  %14 = getelementptr inbounds [4 x [3 x i32]], ptr @Kit_TruthSwapAdjacentVars.PMasks, i64 0, i64 %13
  %15 = load i32, ptr %14, align 4, !tbaa !3
  %16 = getelementptr inbounds nuw i8, ptr %14, i64 4
  %17 = load i32, ptr %16, align 4, !tbaa !3
  %18 = getelementptr inbounds nuw i8, ptr %14, i64 8
  %19 = load i32, ptr %18, align 4, !tbaa !3
  %wide.trip.count170 = zext nneg i32 %8 to i64
  br label %20

20:                                               ; preds = %.lr.ph135, %20
  %indvars.iv167 = phi i64 [ 0, %.lr.ph135 ], [ %indvars.iv.next168, %20 ]
  %21 = getelementptr inbounds nuw i32, ptr %1, i64 %indvars.iv167
  %22 = load i32, ptr %21, align 4, !tbaa !3
  %23 = and i32 %15, %22
  %24 = and i32 %17, %22
  %25 = shl i32 %24, %11
  %26 = or i32 %25, %23
  %27 = and i32 %19, %22
  %28 = lshr i32 %27, %11
  %29 = or i32 %26, %28
  %30 = getelementptr inbounds nuw i32, ptr %0, i64 %indvars.iv167
  store i32 %29, ptr %30, align 4, !tbaa !3
  %indvars.iv.next168 = add nuw nsw i64 %indvars.iv167, 1
  %exitcond171.not = icmp eq i64 %indvars.iv.next168, %wide.trip.count170
  br i1 %exitcond171.not, label %.loopexit, label %20, !llvm.loop !7

31:                                               ; preds = %4
  %.not = icmp eq i32 %3, 4
  br i1 %.not, label %.preheader, label %34

.preheader:                                       ; preds = %31
  %32 = icmp sgt i32 %8, 0
  br i1 %32, label %.lr.ph.preheader, label %.loopexit

.lr.ph.preheader:                                 ; preds = %.preheader
  %33 = zext nneg i32 %8 to i64
  br label %.lr.ph

34:                                               ; preds = %31
  %35 = add nsw i32 %3, -5
  %36 = shl nuw i32 1, %35
  %37 = icmp sgt i32 %8, 0
  br i1 %37, label %.preheader87.lr.ph, label %.loopexit

.preheader87.lr.ph:                               ; preds = %34
  %.not136 = icmp eq i32 %35, 31
  %38 = shl i32 4, %35
  %39 = sext i32 %38 to i64
  br i1 %.not136, label %.loopexit, label %.preheader87.us.preheader

.preheader87.us.preheader:                        ; preds = %.preheader87.lr.ph
  %40 = shl i32 3, %35
  %41 = shl i32 2, %35
  %smax = tail call i32 @llvm.smax.i32(i32 %36, i32 1)
  %42 = sext i32 %41 to i64
  %43 = sext i32 %36 to i64
  %44 = sext i32 %40 to i64
  %wide.trip.count = zext nneg i32 %smax to i64
  %wide.trip.count149 = zext nneg i32 %smax to i64
  br label %.lr.ph.us.preheader

.lr.ph.us.preheader:                              ; preds = %._crit_edge.us, %.preheader87.us.preheader
  %.098.us = phi ptr [ %46, %._crit_edge.us ], [ %0, %.preheader87.us.preheader ]
  %.07797.us = phi ptr [ %45, %._crit_edge.us ], [ %1, %.preheader87.us.preheader ]
  %.07896.us = phi i32 [ %47, %._crit_edge.us ], [ 0, %.preheader87.us.preheader ]
  br label %.lr.ph.us

._crit_edge.us:                                   ; preds = %.lr.ph95.us
  %45 = getelementptr inbounds i32, ptr %.07797.us, i64 %39
  %46 = getelementptr inbounds i32, ptr %.098.us, i64 %39
  %47 = add nsw i32 %.07896.us, %38
  %48 = icmp slt i32 %47, %8
  br i1 %48, label %.lr.ph.us.preheader, label %.loopexit, !llvm.loop !9

.lr.ph95.us:                                      ; preds = %53, %.lr.ph95.us
  %indvars.iv159 = phi i64 [ %indvars.iv.next160, %.lr.ph95.us ], [ 0, %53 ]
  %49 = add nsw i64 %indvars.iv159, %44
  %50 = getelementptr inbounds i32, ptr %.07797.us, i64 %49
  %51 = load i32, ptr %50, align 4, !tbaa !3
  %52 = getelementptr inbounds i32, ptr %.098.us, i64 %49
  store i32 %51, ptr %52, align 4, !tbaa !3
  %indvars.iv.next160 = add nuw nsw i64 %indvars.iv159, 1
  %exitcond163.not = icmp eq i64 %indvars.iv.next160, %wide.trip.count149
  br i1 %exitcond163.not, label %._crit_edge.us, label %.lr.ph95.us, !llvm.loop !10

53:                                               ; preds = %.preheader85.us, %53
  %indvars.iv152 = phi i64 [ 0, %.preheader85.us ], [ %indvars.iv.next153, %53 ]
  %gep177 = getelementptr i32, ptr %invariant.gep176, i64 %indvars.iv152
  %54 = load i32, ptr %gep177, align 4, !tbaa !3
  %gep179 = getelementptr i32, ptr %invariant.gep178, i64 %indvars.iv152
  store i32 %54, ptr %gep179, align 4, !tbaa !3
  %indvars.iv.next153 = add nuw nsw i64 %indvars.iv152, 1
  %exitcond157.not = icmp eq i64 %indvars.iv.next153, %wide.trip.count149
  br i1 %exitcond157.not, label %.lr.ph95.us, label %53, !llvm.loop !11

.lr.ph91.us:                                      ; preds = %.lr.ph91.us.preheader, %.lr.ph91.us
  %indvars.iv145 = phi i64 [ 0, %.lr.ph91.us.preheader ], [ %indvars.iv.next146, %.lr.ph91.us ]
  %gep = getelementptr i32, ptr %invariant.gep, i64 %indvars.iv145
  %55 = load i32, ptr %gep, align 4, !tbaa !3
  %gep175 = getelementptr i32, ptr %invariant.gep174, i64 %indvars.iv145
  store i32 %55, ptr %gep175, align 4, !tbaa !3
  %indvars.iv.next146 = add nuw nsw i64 %indvars.iv145, 1
  %exitcond150.not = icmp eq i64 %indvars.iv.next146, %wide.trip.count149
  br i1 %exitcond150.not, label %.preheader85.us, label %.lr.ph91.us, !llvm.loop !12

.lr.ph.us:                                        ; preds = %.lr.ph.us.preheader, %.lr.ph.us
  %indvars.iv = phi i64 [ 0, %.lr.ph.us.preheader ], [ %indvars.iv.next, %.lr.ph.us ]
  %56 = getelementptr inbounds nuw i32, ptr %.07797.us, i64 %indvars.iv
  %57 = load i32, ptr %56, align 4, !tbaa !3
  %58 = getelementptr inbounds nuw i32, ptr %.098.us, i64 %indvars.iv
  store i32 %57, ptr %58, align 4, !tbaa !3
  %indvars.iv.next = add nuw nsw i64 %indvars.iv, 1
  %exitcond.not = icmp eq i64 %indvars.iv.next, %wide.trip.count
  br i1 %exitcond.not, label %.lr.ph91.us.preheader, label %.lr.ph.us, !llvm.loop !13

.preheader85.us:                                  ; preds = %.lr.ph91.us
  %invariant.gep176 = getelementptr i32, ptr %.07797.us, i64 %43
  %invariant.gep178 = getelementptr i32, ptr %.098.us, i64 %42
  br label %53

.lr.ph91.us.preheader:                            ; preds = %.lr.ph.us
  %invariant.gep = getelementptr i32, ptr %.07797.us, i64 %42
  %invariant.gep174 = getelementptr i32, ptr %.098.us, i64 %43
  br label %.lr.ph91.us

.lr.ph:                                           ; preds = %.lr.ph.preheader, %.lr.ph
  %indvars.iv164 = phi i64 [ 0, %.lr.ph.preheader ], [ %indvars.iv.next165, %.lr.ph ]
  %59 = getelementptr inbounds nuw i32, ptr %1, i64 %indvars.iv164
  %60 = load i32, ptr %59, align 4, !tbaa !3
  %61 = and i32 %60, 65535
  %62 = or disjoint i64 %indvars.iv164, 1
  %63 = getelementptr inbounds nuw i32, ptr %1, i64 %62
  %64 = load i32, ptr %63, align 4, !tbaa !3
  %65 = shl i32 %64, 16
  %66 = or disjoint i32 %65, %61
  %67 = getelementptr inbounds nuw i32, ptr %0, i64 %indvars.iv164
  store i32 %66, ptr %67, align 4, !tbaa !3
  %68 = load i32, ptr %63, align 4, !tbaa !3
  %69 = and i32 %68, -65536
  %70 = load i32, ptr %59, align 4, !tbaa !3
  %71 = lshr i32 %70, 16
  %72 = or disjoint i32 %71, %69
  %73 = getelementptr inbounds nuw i32, ptr %0, i64 %62
  store i32 %72, ptr %73, align 4, !tbaa !3
  %indvars.iv.next165 = add nuw nsw i64 %indvars.iv164, 2
  %74 = icmp samesign ult i64 %indvars.iv.next165, %33
  br i1 %74, label %.lr.ph, label %.loopexit, !llvm.loop !14

.loopexit:                                        ; preds = %._crit_edge.us, %.lr.ph, %20, %.preheader87.lr.ph, %34, %.preheader, %10
  ret void
}